target datalayout = "e-m:e-p270:32:32-p271:32:32-p272:64:64-i64:64-i128:128-f80:128-n8:16:32:64-S128"
target triple = "x86_64-pc-linux-gnu"

%"struct.std::hash.51" = type { i8 }
%"class.std::thread::id" = type { i64 }

; Function Attrs: mustprogress uwtable
define linkonce_odr noundef i64 @_ZNSt10_Hash_impl4hashEPKvmm(ptr noundef %0, i64 noundef %1, i64 noundef %2) #5 comdat align 2 {
  %4 = alloca ptr, align 8
  %5 = alloca i64, align 8
  %6 = alloca i64, align 8
  store ptr %0, ptr %4, align 8, !tbaa !34
  store i64 %1, ptr %5, align 8, !tbaa !4
  store i64 %2, ptr %6, align 8, !tbaa !4
  %7 = load ptr, ptr %4, align 8, !tbaa !34
  %8 = load i64, ptr %5, align 8, !tbaa !4
  %9 = load i64, ptr %6, align 8, !tbaa !4
  %10 = call noundef i64 @_ZSt11_Hash_bytesPKvmm(ptr noundef %7, i64 noundef %8, i64 noundef %9)
  ret i64 %10
}

; Function Attrs: mustprogress uwtable
define linkonce_odr noundef i64 @_ZNSt10_Hash_impl4hashImEEmRKT_(ptr noundef nonnull align 8 dereferenceable(8) %0) #5 comdat align 2 {
  %2 = alloca ptr, align 8
  store ptr %0, ptr %2, align 8, !tbaa !369
  %3 = load ptr, ptr %2, align 8, !tbaa !369
  %4 = call noundef i64 @_ZNSt10_Hash_impl4hashEPKvmm(ptr noundef %3, i64 noundef 8, i64 noundef 3339675911)
  ret i64 %4
}

; Function Attrs: mustprogress nounwind uwtable
define linkonce_odr void @_ZNSt6thread2idC2Em(ptr noundef nonnull align 8 dereferenceable(8) %0, i64 noundef %1) unnamed_addr #3 comdat align 2 {
  %3 = alloca ptr, align 8
  %4 = alloca i64, align 8
  store ptr %0, ptr %3, align 8, !tbaa !151
  store i64 %1, ptr %4, align 8, !tbaa !4
  %5 = load ptr, ptr %3, align 8
  %6 = getelementptr inbounds nuw %"class.std::thread::id", ptr %5, i32 0, i32 0
  %7 = load i64, ptr %4, align 8, !tbaa !4
  store i64 %7, ptr %6, align 8, !tbaa !700
  ret void
}

; Function Attrs: mustprogress nounwind uwtable
define linkonce_odr noundef i64 @_ZNKSt4hashINSt6thread2idEEclERKS1_(ptr noundef nonnull align 1 dereferenceable(1) %0, ptr noundef nonnull align 8 dereferenceable(8) %1) #3 comdat align 2 personality ptr @__gxx_personality_v0 {
  %3 = alloca ptr, align 8
  %4 = alloca ptr, align 8
  store ptr %0, ptr %3, align 8, !tbaa !149
  store ptr %1, ptr %4, align 8, !tbaa !151
  %5 = load ptr, ptr %4, align 8, !tbaa !151
  %6 = getelementptr inbounds nuw %"class.std::thread::id", ptr %5, i32 0, i32 0
  %7 = invoke noundef i64 @_ZNSt10_Hash_impl4hashImEEmRKT_(ptr noundef nonnull align 8 dereferenceable(8) %6)
          to label %8 unwind label %9

8:                                                ; preds = %2
  ret i64 %7

9:                                                ; preds = %2
  %10 = landingpad { ptr, i32 }
          catch ptr null
  %11 = extractvalue { ptr, i32 } %10, 0
  call void @__clang_call_terminate(ptr %11) #26
  unreachable
}

; Function Attrs: inlinehint mustprogress nounwind uwtable
define linkonce_odr i64 @_ZNSt11this_thread6get_idEv() #1 comdat personality ptr @__gxx_personality_v0 {
  %1 = alloca %"class.std::thread::id", align 8
  %2 = call i64 @pthread_self() #31
  invoke void @_ZNSt6thread2idC2Em(ptr noundef nonnull align 8 dereferenceable(8) %1, i64 noundef %2)
          to label %3 unwind label %6

3:                                                ; preds = %0
  %4 = getelementptr inbounds nuw %"class.std::thread::id", ptr %1, i32 0, i32 0
  %5 = load i64, ptr %4, align 8
  ret i64 %5

6:                                                ; preds = %0
  %7 = landingpad { ptr, i32 }
          catch ptr null
  %8 = extractvalue { ptr, i32 } %7, 0
  call void @__clang_call_terminate(ptr %8) #26
  unreachable
}

; Function Attrs: mustprogress nounwind uwtable
define noundef i64 @_ZNK7rocksdb3Env11GetThreadIDEv(ptr noundef nonnull align 8 dereferenceable(72) %0) unnamed_addr #3 align 2 {
  %2 = alloca ptr, align 8
  %3 = alloca %"struct.std::hash.51", align 1
  %4 = alloca %"class.std::thread::id", align 8
  store ptr %0, ptr %2, align 8, !tbaa !50
  call void @llvm.lifetime.start.p0(i64 1, ptr %3) #4
  call void @llvm.lifetime.start.p0(i64 8, ptr %4) #4
  %5 = call i64 @_ZNSt11this_thread6get_idEv() #4
  %6 = getelementptr inbounds nuw %"class.std::thread::id", ptr %4, i32 0, i32 0
  store i64 %5, ptr %6, align 8
  %7 = call noundef i64 @_ZNKSt4hashINSt6thread2idEEclERKS1_(ptr noundef nonnull align 1 dereferenceable(1) %3, ptr noundef nonnull align 8 dereferenceable(8) %4) #4
  call void @llvm.lifetime.end.p0(i64 8, ptr %4) #4
  call void @llvm.lifetime.end.p0(i64 1, ptr %3) #4
  ret i64 %7
}