; Function Attrs: mustprogress nounwind uwtable
define noundef i64 @_ZNK7rocksdb3Env11GetThreadIDEv(ptr nonnull readnone align 8 captures(none) %0) unnamed_addr #1 align 2 personality ptr @__gxx_personality_v0 {
  %2 = alloca %"class.std::thread::id", align 8
  call void @llvm.lifetime.start.p0(i64 8, ptr nonnull %2) #37
  %3 = tail call i64 @pthread_self() #40
  store i64 %3, ptr %2, align 8
  %4 = invoke noundef i64 @_ZSt11_Hash_bytesPKvmm(ptr noundef nonnull align 8 dereferenceable(8) %2, i64 noundef 8, i64 noundef 3339675911)
          to label %_ZNKSt4hashINSt6thread2idEEclERKS1_.exit unwind label %5

5:                                                ; preds = %1
  %6 = landingpad { ptr, i32 }
          catch ptr null
  %7 = extractvalue { ptr, i32 } %6, 0
  call void @__clang_call_terminate(ptr %7) #38
  unreachable

_ZNKSt4hashINSt6thread2idEEclERKS1_.exit:         ; preds = %1
  call void @llvm.lifetime.end.p0(i64 8, ptr nonnull %2) #37
  ret i64 %4
}